(dp0
S'crayola_64_ct'
p1
ccopy_reg
_reconstructor
p2
(cgrasping.myTypes
objAttr
p3
c__builtin__
tuple
p4
(g1
(lp5
I2
a(lp6
I2
a(lp7
I0
aI01
F-0.15
I01
tp8
tp9
Rp10
ccollections
OrderedDict
p11
((lp12
(lp13
S'name'
p14
ag1
aa(lp15
S'invalidApproachAxis'
p16
ag5
aa(lp17
S'invalidGraspAxis'
p18
ag6
aa(lp19
S'graspStrategy'
p20
ag7
aa(lp21
S'easy'
p22
aI01
aa(lp23
S'pre_distance'
p24
aF-0.15
aa(lp25
S'simtrack'
p26
aI01
aatp27
Rp28
bsS'paper_mate_12_count_mirado_black_warrior'
p29
g2
(g3
g4
(g29
(lp30
I0
a(lp31
I0
a(lp32
I1
aI0
aI01
F-0.1
I01
tp33
tp34
Rp35
g11
((lp36
(lp37
g14
ag29
aa(lp38
g16
ag30
aa(lp39
g18
ag31
aa(lp40
g20
ag32
aa(lp41
g22
aI01
aa(lp42
g24
aF-0.1
aa(lp43
g26
aI01
aatp44
Rp45
bsS'kong_sitting_frog_dog_toy'
p46
g2
(g3
g4
(g46
(lp47
(lp48
(lp49
I1
aI01
F-0.15
I00
tp50
tp51
Rp52
g11
((lp53
(lp54
g14
ag46
aa(lp55
g16
ag47
aa(lp56
g18
ag48
aa(lp57
g20
ag49
aa(lp58
g22
aI01
aa(lp59
g24
aF-0.15
aa(lp60
g26
aI00
aatp61
Rp62
bsS'kyjen_squeakin_eggs_plush_puppies'
p63
g2
(g3
g4
(g63
(lp64
(lp65
(lp66
I1
aI01
F-0.1
I00
tp67
tp68
Rp69
g11
((lp70
(lp71
g14
ag63
aa(lp72
g16
ag64
aa(lp73
g18
ag65
aa(lp74
g20
ag66
aa(lp75
g22
aI01
aa(lp76
g24
aF-0.1
aa(lp77
g26
aI00
aatp78
Rp79
bsS'kong_duck_dog_toy'
p80
g2
(g3
g4
(g80
(lp81
(lp82
(lp83
I1
aI01
F-0.15
I00
tp84
tp85
Rp86
g11
((lp87
(lp88
g14
ag80
aa(lp89
g16
ag81
aa(lp90
g18
ag82
aa(lp91
g20
ag83
aa(lp92
g22
aI01
aa(lp93
g24
aF-0.15
aa(lp94
g26
aI00
aatp95
Rp96
bsS'cheezit_big_original'
p97
g2
(g3
g4
(g97
(lp98
I2
a(lp99
I2
a(lp100
I0
aI01
F-0.2
I01
tp101
tp102
Rp103
g11
((lp104
(lp105
g14
ag97
aa(lp106
g16
ag98
aa(lp107
g18
ag99
aa(lp108
g20
ag100
aa(lp109
g22
aI01
aa(lp110
g24
aF-0.2
aa(lp111
g26
aI01
aatp112
Rp113
bsS'sharpie_accent_tank_style_highlighters'
p114
g2
(g3
g4
(g114
(lp115
I2
a(lp116
I2
a(lp117
I0
aI00
F-0.15
I01
tp118
tp119
Rp120
g11
((lp121
(lp122
g14
ag114
aa(lp123
g16
ag115
aa(lp124
g18
ag116
aa(lp125
g20
ag117
aa(lp126
g22
aI00
aa(lp127
g24
aF-0.15
aa(lp128
g26
aI01
aatp129
Rp130
bsS'oreo_mega_stuf'
p131
g2
(g3
g4
(g131
(lp132
I2
a(lp133
I2
a(lp134
I0
aI01
F-0.2
I01
tp135
tp136
Rp137
g11
((lp138
(lp139
g14
ag131
aa(lp140
g16
ag132
aa(lp141
g18
ag133
aa(lp142
g20
ag134
aa(lp143
g22
aI01
aa(lp144
g24
aF-0.2
aa(lp145
g26
aI01
aatp146
Rp147
bsS'munchkin_white_hot_duck_bath_toy'
p148
g2
(g3
g4
(g148
(lp149
(lp150
(lp151
I1
aI01
F-0.15
I00
tp152
tp153
Rp154
g11
((lp155
(lp156
g14
ag148
aa(lp157
g16
ag149
aa(lp158
g18
ag150
aa(lp159
g20
ag151
aa(lp160
g22
aI01
aa(lp161
g24
aF-0.15
aa(lp162
g26
aI00
aatp163
Rp164
bsS'mead_index_cards'
p165
g2
(g3
g4
(g165
(lp166
I2
a(lp167
I2
a(lp168
I1
aI01
F-0.15
I01
tp169
tp170
Rp171
g11
((lp172
(lp173
g14
ag165
aa(lp174
g16
ag166
aa(lp175
g18
ag167
aa(lp176
g20
ag168
aa(lp177
g22
aI01
aa(lp178
g24
aF-0.15
aa(lp179
g26
aI01
aatp180
Rp181
bsS'laugh_out_loud_joke_book'
p182
g2
(g3
g4
(g182
(lp183
I2
a(lp184
I2
a(lp185
I0
aI1
aI00
F-0.1
I00
tp186
tp187
Rp188
g11
((lp189
(lp190
g14
ag182
aa(lp191
g16
ag183
aa(lp192
g18
ag184
aa(lp193
g20
ag185
aa(lp194
g22
aI00
aa(lp195
g24
aF-0.1
aa(lp196
g26
aI00
aatp197
Rp198
bsS'first_years_take_and_toss_straw_cup'
p199
g2
(g3
g4
(g199
(lp200
(lp201
(lp202
I1
aI0
aI01
F-0.15
I00
tp203
tp204
Rp205
g11
((lp206
(lp207
g14
ag199
aa(lp208
g16
ag200
aa(lp209
g18
ag201
aa(lp210
g20
ag202
aa(lp211
g22
aI01
aa(lp212
g24
aF-0.15
aa(lp213
g26
aI00
aatp214
Rp215
bsS'stanley_66_052'
p216
g2
(g3
g4
(g216
(lp217
I2
a(lp218
I2
a(lp219
I1
aI0
aI00
F-0.1
I01
tp220
tp221
Rp222
g11
((lp223
(lp224
g14
ag216
aa(lp225
g16
ag217
aa(lp226
g18
ag218
aa(lp227
g20
ag219
aa(lp228
g22
aI00
aa(lp229
g24
aF-0.1
aa(lp230
g26
aI01
aatp231
Rp232
bsS'elmers_washable_no_run_school_glue'
p233
g2
(g3
g4
(g233
(lp234
I1
a(lp235
I2
a(lp236
I0
aI1
aI01
F-0.15
I01
tp237
tp238
Rp239
g11
((lp240
(lp241
g14
ag233
aa(lp242
g16
ag234
aa(lp243
g18
ag235
aa(lp244
g20
ag236
aa(lp245
g22
aI01
aa(lp246
g24
aF-0.15
aa(lp247
g26
aI01
aatp248
Rp249
bsS'kong_air_dog_squeakair_tennis_ball'
p250
g2
(g3
g4
(g250
(lp251
(lp252
(lp253
I1
aI01
F-0.1
I00
tp254
tp255
Rp256
g11
((lp257
(lp258
g14
ag250
aa(lp259
g16
ag251
aa(lp260
g18
ag252
aa(lp261
g20
ag253
aa(lp262
g22
aI01
aa(lp263
g24
aF-0.1
aa(lp264
g26
aI00
aatp265
Rp266
bs.