(dp0
S'crayola_64_ct'
p1
ccopy_reg
_reconstructor
p2
(cgrasping.myTypes
objAttr
p3
c__builtin__
tuple
p4
(g1
(lp5
I2
a(lp6
I2
aI0
tp7
tp8
Rp9
ccollections
OrderedDict
p10
((lp11
(lp12
S'name'
p13
ag1
aa(lp14
S'invalidApproachAxis'
p15
ag5
aa(lp16
S'invalidGraspAxis'
p17
ag6
aa(lp18
S'graspStrategy'
p19
aI0
aatp20
Rp21
bsS'cheezit_big_original'
p22
g2
(g3
g4
(g22
(lp23
I2
a(lp24
I2
aI0
tp25
tp26
Rp27
g10
((lp28
(lp29
g13
ag22
aa(lp30
g15
ag23
aa(lp31
g17
ag24
aa(lp32
g19
aI0
aatp33
Rp34
bs.