(dp0
S'crayola_64_ct'
p1
ccopy_reg
_reconstructor
p2
(cgrasping.myTypes
objAttr
p3
c__builtin__
tuple
p4
(g1
(lp5
I2
a(lp6
I2
a(lp7
I0
aI01
tp8
tp9
Rp10
ccollections
OrderedDict
p11
((lp12
(lp13
S'name'
p14
ag1
aa(lp15
S'invalidApproachAxis'
p16
ag5
aa(lp17
S'invalidGraspAxis'
p18
ag6
aa(lp19
S'graspStrategy'
p20
ag7
aa(lp21
S'easy'
p22
aI01
aatp23
Rp24
bsS'paper_mate_12_count_mirado_black_warrior'
p25
g2
(g3
g4
(g25
(lp26
I0
a(lp27
I0
a(lp28
I1
aI0
aI01
tp29
tp30
Rp31
g11
((lp32
(lp33
g14
ag25
aa(lp34
g16
ag26
aa(lp35
g18
ag27
aa(lp36
g20
ag28
aa(lp37
g22
aI01
aatp38
Rp39
bsS'kong_sitting_frog_dog_toy'
p40
g2
(g3
g4
(g40
(lp41
(lp42
(lp43
I1
aI0
aI01
tp44
tp45
Rp46
g11
((lp47
(lp48
g14
ag40
aa(lp49
g16
ag41
aa(lp50
g18
ag42
aa(lp51
g20
ag43
aa(lp52
g22
aI01
aatp53
Rp54
bsS'kyjen_squeakin_eggs_plush_puppies'
p55
g2
(g3
g4
(g55
(lp56
(lp57
(lp58
I1
aI0
aI01
tp59
tp60
Rp61
g11
((lp62
(lp63
g14
ag55
aa(lp64
g16
ag56
aa(lp65
g18
ag57
aa(lp66
g20
ag58
aa(lp67
g22
aI01
aatp68
Rp69
bsS'kong_duck_dog_toy'
p70
g2
(g3
g4
(g70
(lp71
(lp72
(lp73
I1
aI0
aI01
tp74
tp75
Rp76
g11
((lp77
(lp78
g14
ag70
aa(lp79
g16
ag71
aa(lp80
g18
ag72
aa(lp81
g20
ag73
aa(lp82
g22
aI01
aatp83
Rp84
bsS'cheezit_big_original'
p85
g2
(g3
g4
(g85
(lp86
I2
a(lp87
I2
a(lp88
I0
aI01
tp89
tp90
Rp91
g11
((lp92
(lp93
g14
ag85
aa(lp94
g16
ag86
aa(lp95
g18
ag87
aa(lp96
g20
ag88
aa(lp97
g22
aI01
aatp98
Rp99
bsS'sharpie_accent_tank_style_highlighters'
p100
g2
(g3
g4
(g100
(lp101
I2
a(lp102
I2
a(lp103
I0
aI00
tp104
tp105
Rp106
g11
((lp107
(lp108
g14
ag100
aa(lp109
g16
ag101
aa(lp110
g18
ag102
aa(lp111
g20
ag103
aa(lp112
g22
aI00
aatp113
Rp114
bsS'oreo_mega_stuf'
p115
g2
(g3
g4
(g115
(lp116
I2
a(lp117
I2
a(lp118
I0
aI01
tp119
tp120
Rp121
g11
((lp122
(lp123
g14
ag115
aa(lp124
g16
ag116
aa(lp125
g18
ag117
aa(lp126
g20
ag118
aa(lp127
g22
aI01
aatp128
Rp129
bsS'munchkin_white_hot_duck_bath_toy'
p130
g2
(g3
g4
(g130
(lp131
(lp132
(lp133
I0
aI1
aI01
tp134
tp135
Rp136
g11
((lp137
(lp138
g14
ag130
aa(lp139
g16
ag131
aa(lp140
g18
ag132
aa(lp141
g20
ag133
aa(lp142
g22
aI01
aatp143
Rp144
bsS'mead_index_cards'
p145
g2
(g3
g4
(g145
(lp146
I2
a(lp147
I2
a(lp148
I1
aI0
aI01
tp149
tp150
Rp151
g11
((lp152
(lp153
g14
ag145
aa(lp154
g16
ag146
aa(lp155
g18
ag147
aa(lp156
g20
ag148
aa(lp157
g22
aI01
aatp158
Rp159
bsS'laugh_out_loud_joke_book'
p160
g2
(g3
g4
(g160
(lp161
I2
a(lp162
I2
a(lp163
I0
aI00
tp164
tp165
Rp166
g11
((lp167
(lp168
g14
ag160
aa(lp169
g16
ag161
aa(lp170
g18
ag162
aa(lp171
g20
ag163
aa(lp172
g22
aI00
aatp173
Rp174
bsS'first_years_take_and_toss_straw_cup'
p175
g2
(g3
g4
(g175
(lp176
(lp177
(lp178
I1
aI0
aI01
tp179
tp180
Rp181
g11
((lp182
(lp183
g14
ag175
aa(lp184
g16
ag176
aa(lp185
g18
ag177
aa(lp186
g20
ag178
aa(lp187
g22
aI01
aatp188
Rp189
bsS'stanley_66_052'
p190
g2
(g3
g4
(g190
(lp191
I2
a(lp192
I2
a(lp193
I1
aI0
aI00
tp194
tp195
Rp196
g11
((lp197
(lp198
g14
ag190
aa(lp199
g16
ag191
aa(lp200
g18
ag192
aa(lp201
g20
ag193
aa(lp202
g22
aI00
aatp203
Rp204
bsS'elmers_washable_no_run_school_glue'
p205
g2
(g3
g4
(g205
(lp206
I1
a(lp207
I2
a(lp208
I0
aI1
aI01
tp209
tp210
Rp211
g11
((lp212
(lp213
g14
ag205
aa(lp214
g16
ag206
aa(lp215
g18
ag207
aa(lp216
g20
ag208
aa(lp217
g22
aI01
aatp218
Rp219
bsS'kong_air_dog_squeakair_tennis_ball'
p220
g2
(g3
g4
(g220
(lp221
(lp222
(lp223
I1
aI0
aI01
tp224
tp225
Rp226
g11
((lp227
(lp228
g14
ag220
aa(lp229
g16
ag221
aa(lp230
g18
ag222
aa(lp231
g20
ag223
aa(lp232
g22
aI01
aatp233
Rp234
bs.