(dp0
S'feline_greenies_dental_treats'
p1
ccopy_reg
_reconstructor
p2
(cgrasping.myTypes
objAttr
p3
c__builtin__
tuple
p4
(g1
(lp5
I2
a(lp6
I2
a(lp7
I0
aI01
F-0.1
I01
F0.075
tp8
tp9
Rp10
ccollections
OrderedDict
p11
((lp12
(lp13
S'name'
p14
ag1
aa(lp15
S'invalidApproachAxis'
p16
ag5
aa(lp17
S'invalidGraspAxis'
p18
ag6
aa(lp19
S'graspStrategy'
p20
ag7
aa(lp21
S'easy'
p22
aI01
aa(lp23
S'pre_distance'
p24
aF-0.1
aa(lp25
S'simtrack'
p26
aI01
aa(lp27
S'xLength'
p28
aF0.075
aatp29
Rp30
bsS'genuine_joe_plastic_stir_sticks'
p31
g2
(g3
g4
(g31
(lp32
I2
a(lp33
I2
a(lp34
I0
aI00
F-0.1
I01
F0.075
tp35
tp36
Rp37
g11
((lp38
(lp39
g14
ag31
aa(lp40
g16
ag32
aa(lp41
g18
ag33
aa(lp42
g20
ag34
aa(lp43
g22
aI00
aa(lp44
g24
aF-0.1
aa(lp45
g26
aI01
aa(lp46
g28
aF0.075
aatp47
Rp48
bsS'dummyEntry'
p49
g2
(g3
g4
(g49
(lp50
(lp51
(lp52
I1
aI0
aI01
F-0.15
I00
I0
tp53
tp54
Rp55
g11
((lp56
(lp57
g14
ag49
aa(lp58
g16
ag50
aa(lp59
g18
ag51
aa(lp60
g20
ag52
aa(lp61
g22
aI01
aa(lp62
g24
aF-0.15
aa(lp63
g26
aI00
aa(lp64
g28
aI0
aatp65
Rp66
bsS'elmers_washable_no_run_school_glue'
p67
g2
(g3
g4
(g67
(lp68
I1
a(lp69
I2
a(lp70
I0
aI1
aI01
F-0.15
I01
I0
tp71
tp72
Rp73
g11
((lp74
(lp75
g14
ag67
aa(lp76
g16
ag68
aa(lp77
g18
ag69
aa(lp78
g20
ag70
aa(lp79
g22
aI01
aa(lp80
g24
aF-0.15
aa(lp81
g26
aI01
aa(lp82
g28
aI0
aatp83
Rp84
bsS'crayola_64_ct'
p85
g2
(g3
g4
(g85
(lp86
I2
a(lp87
I2
a(lp88
I0
aI01
F-0.15
I01
F0.065
tp89
tp90
Rp91
g11
((lp92
(lp93
g14
ag85
aa(lp94
g16
ag86
aa(lp95
g18
ag87
aa(lp96
g20
ag88
aa(lp97
g22
aI01
aa(lp98
g24
aF-0.15
aa(lp99
g26
aI01
aa(lp100
g28
aF0.065
aatp101
Rp102
bsS'paper_mate_12_count_mirado_black_warrior'
p103
g2
(g3
g4
(g103
(lp104
I0
a(lp105
I0
a(lp106
I1
aI0
aI01
F-0.1
I00
I0
tp107
tp108
Rp109
g11
((lp110
(lp111
g14
ag103
aa(lp112
g16
ag104
aa(lp113
g18
ag105
aa(lp114
g20
ag106
aa(lp115
g22
aI01
aa(lp116
g24
aF-0.1
aa(lp117
g26
aI00
aa(lp118
g28
aI0
aatp119
Rp120
bsS'kyjen_squeakin_eggs_plush_puppies'
p121
g2
(g3
g4
(g121
(lp122
(lp123
(lp124
I1
aI01
F-0.1
I00
I0
tp125
tp126
Rp127
g11
((lp128
(lp129
g14
ag121
aa(lp130
g16
ag122
aa(lp131
g18
ag123
aa(lp132
g20
ag124
aa(lp133
g22
aI01
aa(lp134
g24
aF-0.1
aa(lp135
g26
aI00
aa(lp136
g28
aI0
aatp137
Rp138
bsS'kong_duck_dog_toy'
p139
g2
(g3
g4
(g139
(lp140
(lp141
(lp142
I1
aI01
F-0.15
I00
I0
tp143
tp144
Rp145
g11
((lp146
(lp147
g14
ag139
aa(lp148
g16
ag140
aa(lp149
g18
ag141
aa(lp150
g20
ag142
aa(lp151
g22
aI01
aa(lp152
g24
aF-0.15
aa(lp153
g26
aI00
aa(lp154
g28
aI0
aatp155
Rp156
bsS'mommys_helper_outlet_plugs'
p157
g2
(g3
g4
(g157
(lp158
(lp159
(lp160
I1
aI01
F-0.1
I01
I0
tp161
tp162
Rp163
g11
((lp164
(lp165
g14
ag157
aa(lp166
g16
ag158
aa(lp167
g18
ag159
aa(lp168
g20
ag160
aa(lp169
g22
aI01
aa(lp170
g24
aF-0.1
aa(lp171
g26
aI01
aa(lp172
g28
aI0
aatp173
Rp174
bsS'safety_works_safety_glasses'
p175
g2
(g3
g4
(g175
(lp176
(lp177
(lp178
I1
aI01
F-0.15
I00
I0
tp179
tp180
Rp181
g11
((lp182
(lp183
g14
ag175
aa(lp184
g16
ag176
aa(lp185
g18
ag177
aa(lp186
g20
ag178
aa(lp187
g22
aI01
aa(lp188
g24
aF-0.15
aa(lp189
g26
aI00
aa(lp190
g28
aI0
aatp191
Rp192
bsS'mark_twain_huckleberry_finn'
p193
g2
(g3
g4
(g193
(lp194
I2
a(lp195
I2
a(lp196
I0
aI00
F-0.1
I01
F0.064
tp197
tp198
Rp199
g11
((lp200
(lp201
g14
ag193
aa(lp202
g16
ag194
aa(lp203
g18
ag195
aa(lp204
g20
ag196
aa(lp205
g22
aI00
aa(lp206
g24
aF-0.1
aa(lp207
g26
aI01
aa(lp208
g28
aF0.064
aatp209
Rp210
bsS'highland_6539_self_stick_notes'
p211
g2
(g3
g4
(g211
(lp212
(lp213
(lp214
I1
aI01
F-0.1
I00
I0
tp215
tp216
Rp217
g11
((lp218
(lp219
g14
ag211
aa(lp220
g16
ag212
aa(lp221
g18
ag213
aa(lp222
g20
ag214
aa(lp223
g22
aI01
aa(lp224
g24
aF-0.1
aa(lp225
g26
aI00
aa(lp226
g28
aI0
aatp227
Rp228
bsS'sharpie_accent_tank_style_highlighters'
p229
g2
(g3
g4
(g229
(lp230
I2
a(lp231
I2
a(lp232
I0
aI00
F-0.15
I01
I0
tp233
tp234
Rp235
g11
((lp236
(lp237
g14
ag229
aa(lp238
g16
ag230
aa(lp239
g18
ag231
aa(lp240
g20
ag232
aa(lp241
g22
aI00
aa(lp242
g24
aF-0.15
aa(lp243
g26
aI01
aa(lp244
g28
aI0
aatp245
Rp246
bsS'rolodex_jumbo_pencil_cup'
p247
g2
(g3
g4
(g247
(lp248
(lp249
(lp250
I0
aI00
F-0.15
I00
I0
tp251
tp252
Rp253
g11
((lp254
(lp255
g14
ag247
aa(lp256
g16
ag248
aa(lp257
g18
ag249
aa(lp258
g20
ag250
aa(lp259
g22
aI00
aa(lp260
g24
aF-0.15
aa(lp261
g26
aI00
aa(lp262
g28
aI0
aatp263
Rp264
bsS'laugh_out_loud_joke_book'
p265
g2
(g3
g4
(g265
(lp266
I2
a(lp267
I2
a(lp268
I0
aI00
F-0.1
I01
F0.064
tp269
tp270
Rp271
g11
((lp272
(lp273
g14
ag265
aa(lp274
g16
ag266
aa(lp275
g18
ag267
aa(lp276
g20
ag268
aa(lp277
g22
aI00
aa(lp278
g24
aF-0.1
aa(lp279
g26
aI01
aa(lp280
g28
aF0.064
aatp281
Rp282
bsS'champion_copper_plus_spark_plug'
p283
g2
(g3
g4
(g283
(lp284
(lp285
(lp286
I1
aI01
F-0.1
I01
I0
tp287
tp288
Rp289
g11
((lp290
(lp291
g14
ag283
aa(lp292
g16
ag284
aa(lp293
g18
ag285
aa(lp294
g20
ag286
aa(lp295
g22
aI01
aa(lp296
g24
aF-0.1
aa(lp297
g26
aI01
aa(lp298
g28
aI0
aatp299
Rp300
bsS'first_years_take_and_toss_straw_cup'
p301
g2
(g3
g4
(g301
(lp302
(lp303
(lp304
I1
aI0
aI01
F-0.15
I00
I0
tp305
tp306
Rp307
g11
((lp308
(lp309
g14
ag301
aa(lp310
g16
ag302
aa(lp311
g18
ag303
aa(lp312
g20
ag304
aa(lp313
g22
aI01
aa(lp314
g24
aF-0.15
aa(lp315
g26
aI00
aa(lp316
g28
aI0
aatp317
Rp318
bsS'stanley_66_052'
p319
g2
(g3
g4
(g319
(lp320
I2
a(lp321
I2
a(lp322
I1
aI0
aI01
F-0.1
I00
I0
tp323
tp324
Rp325
g11
((lp326
(lp327
g14
ag319
aa(lp328
g16
ag320
aa(lp329
g18
ag321
aa(lp330
g20
ag322
aa(lp331
g22
aI01
aa(lp332
g24
aF-0.1
aa(lp333
g26
aI00
aa(lp334
g28
aI0
aatp335
Rp336
bsS'kong_sitting_frog_dog_toy'
p337
g2
(g3
g4
(g337
(lp338
(lp339
(lp340
I1
aI01
F-0.15
I00
I0
tp341
tp342
Rp343
g11
((lp344
(lp345
g14
ag337
aa(lp346
g16
ag338
aa(lp347
g18
ag339
aa(lp348
g20
ag340
aa(lp349
g22
aI01
aa(lp350
g24
aF-0.15
aa(lp351
g26
aI00
aa(lp352
g28
aI0
aatp353
Rp354
bsS'cheezit_big_original'
p355
g2
(g3
g4
(g355
(lp356
I2
a(lp357
I2
a(lp358
I0
aI01
F-0.2
I01
F0.11
tp359
tp360
Rp361
g11
((lp362
(lp363
g14
ag355
aa(lp364
g16
ag356
aa(lp365
g18
ag357
aa(lp366
g20
ag358
aa(lp367
g22
aI01
aa(lp368
g24
aF-0.2
aa(lp369
g26
aI01
aa(lp370
g28
aF0.11
aatp371
Rp372
bsS'oreo_mega_stuf'
p373
g2
(g3
g4
(g373
(lp374
I2
a(lp375
I2
a(lp376
I0
aI01
F-0.2
I01
F0.11
tp377
tp378
Rp379
g11
((lp380
(lp381
g14
ag373
aa(lp382
g16
ag374
aa(lp383
g18
ag375
aa(lp384
g20
ag376
aa(lp385
g22
aI01
aa(lp386
g24
aF-0.2
aa(lp387
g26
aI01
aa(lp388
g28
aF0.11
aatp389
Rp390
bsS'dr_browns_bottle_brush'
p391
g2
(g3
g4
(g391
(lp392
(lp393
(lp394
I1
aI01
F-0.1
I01
I0
tp395
tp396
Rp397
g11
((lp398
(lp399
g14
ag391
aa(lp400
g16
ag392
aa(lp401
g18
ag393
aa(lp402
g20
ag394
aa(lp403
g22
aI01
aa(lp404
g24
aF-0.1
aa(lp405
g26
aI01
aa(lp406
g28
aI0
aatp407
Rp408
bsS'munchkin_white_hot_duck_bath_toy'
p409
g2
(g3
g4
(g409
(lp410
(lp411
(lp412
I1
aI01
F-0.1
I00
I0
tp413
tp414
Rp415
g11
((lp416
(lp417
g14
ag409
aa(lp418
g16
ag410
aa(lp419
g18
ag411
aa(lp420
g20
ag412
aa(lp421
g22
aI01
aa(lp422
g24
aF-0.1
aa(lp423
g26
aI00
aa(lp424
g28
aI0
aatp425
Rp426
bsS'mead_index_cards'
p427
g2
(g3
g4
(g427
(lp428
I2
a(lp429
I2
a(lp430
I1
aI01
F-0.15
I01
I0
tp431
tp432
Rp433
g11
((lp434
(lp435
g14
ag427
aa(lp436
g16
ag428
aa(lp437
g18
ag429
aa(lp438
g20
ag430
aa(lp439
g22
aI01
aa(lp440
g24
aF-0.15
aa(lp441
g26
aI01
aa(lp442
g28
aI0
aatp443
Rp444
bsS'expo_dry_erase_board_eraser'
p445
g2
(g3
g4
(g445
(lp446
(lp447
(lp448
I1
aI01
F-0.1
I01
I0
tp449
tp450
Rp451
g11
((lp452
(lp453
g14
ag445
aa(lp454
g16
ag446
aa(lp455
g18
ag447
aa(lp456
g20
ag448
aa(lp457
g22
aI01
aa(lp458
g24
aF-0.1
aa(lp459
g26
aI01
aa(lp460
g28
aI0
aatp461
Rp462
bsS'kong_air_dog_squeakair_tennis_ball'
p463
g2
(g3
g4
(g463
(lp464
(lp465
(lp466
I1
aI01
F-0.1
I00
I0
tp467
tp468
Rp469
g11
((lp470
(lp471
g14
ag463
aa(lp472
g16
ag464
aa(lp473
g18
ag465
aa(lp474
g20
ag466
aa(lp475
g22
aI01
aa(lp476
g24
aF-0.1
aa(lp477
g26
aI00
aa(lp478
g28
aI0
aatp479
Rp480
bs.