(dp0
S'cheezit_big_original'
p1
ccopy_reg
_reconstructor
p2
(c__main__
objAttr
p3
c__builtin__
tuple
p4
(g1
(lp5
I2
a(lp6
I2
aI0
tp7
tp8
Rp9
ccollections
OrderedDict
p10
((lp11
(lp12
S'name'
p13
ag1
aa(lp14
S'invalidApproachAxis'
p15
ag5
aa(lp16
S'invalidGraspAxis'
p17
ag6
aa(lp18
S'graspStrategy'
p19
aI0
aatp20
Rp21
bs.