(dp0
S'crayola_64_ct'
p1
ccopy_reg
_reconstructor
p2
(cgrasping.myTypes
objAttr
p3
c__builtin__
tuple
p4
(g1
(lp5
I2
a(lp6
I2
a(lp7
I0
aI01
F0.1
tp8
tp9
Rp10
ccollections
OrderedDict
p11
((lp12
(lp13
S'name'
p14
ag1
aa(lp15
S'invalidApproachAxis'
p16
ag5
aa(lp17
S'invalidGraspAxis'
p18
ag6
aa(lp19
S'graspStrategy'
p20
ag7
aa(lp21
S'easy'
p22
aI01
aa(lp23
S'pre_distance'
p24
aF0.1
aatp25
Rp26
bsS'paper_mate_12_count_mirado_black_warrior'
p27
g2
(g3
g4
(g27
(lp28
I0
a(lp29
I0
a(lp30
I1
aI0
aI01
F0.06
tp31
tp32
Rp33
g11
((lp34
(lp35
g14
ag27
aa(lp36
g16
ag28
aa(lp37
g18
ag29
aa(lp38
g20
ag30
aa(lp39
g22
aI01
aa(lp40
g24
aF0.06
aatp41
Rp42
bsS'kong_sitting_frog_dog_toy'
p43
g2
(g3
g4
(g43
(lp44
(lp45
(lp46
I1
aI01
F0.06
tp47
tp48
Rp49
g11
((lp50
(lp51
g14
ag43
aa(lp52
g16
ag44
aa(lp53
g18
ag45
aa(lp54
g20
ag46
aa(lp55
g22
aI01
aa(lp56
g24
aF0.06
aatp57
Rp58
bsS'kyjen_squeakin_eggs_plush_puppies'
p59
g2
(g3
g4
(g59
(lp60
(lp61
(lp62
I1
aI01
F0.06
tp63
tp64
Rp65
g11
((lp66
(lp67
g14
ag59
aa(lp68
g16
ag60
aa(lp69
g18
ag61
aa(lp70
g20
ag62
aa(lp71
g22
aI01
aa(lp72
g24
aF0.06
aatp73
Rp74
bsS'kong_duck_dog_toy'
p75
g2
(g3
g4
(g75
(lp76
(lp77
(lp78
I1
aI01
F0.06
tp79
tp80
Rp81
g11
((lp82
(lp83
g14
ag75
aa(lp84
g16
ag76
aa(lp85
g18
ag77
aa(lp86
g20
ag78
aa(lp87
g22
aI01
aa(lp88
g24
aF0.06
aatp89
Rp90
bsS'cheezit_big_original'
p91
g2
(g3
g4
(g91
(lp92
I2
a(lp93
I2
a(lp94
I0
aI01
F0.14
tp95
tp96
Rp97
g11
((lp98
(lp99
g14
ag91
aa(lp100
g16
ag92
aa(lp101
g18
ag93
aa(lp102
g20
ag94
aa(lp103
g22
aI01
aa(lp104
g24
aF0.14
aatp105
Rp106
bsS'sharpie_accent_tank_style_highlighters'
p107
g2
(g3
g4
(g107
(lp108
I2
a(lp109
I2
a(lp110
I0
aI00
F0.08
tp111
tp112
Rp113
g11
((lp114
(lp115
g14
ag107
aa(lp116
g16
ag108
aa(lp117
g18
ag109
aa(lp118
g20
ag110
aa(lp119
g22
aI00
aa(lp120
g24
aF0.08
aatp121
Rp122
bsS'oreo_mega_stuf'
p123
g2
(g3
g4
(g123
(lp124
I2
a(lp125
I2
a(lp126
I0
aI01
F0.2
tp127
tp128
Rp129
g11
((lp130
(lp131
g14
ag123
aa(lp132
g16
ag124
aa(lp133
g18
ag125
aa(lp134
g20
ag126
aa(lp135
g22
aI01
aa(lp136
g24
aF0.2
aatp137
Rp138
bsS'munchkin_white_hot_duck_bath_toy'
p139
g2
(g3
g4
(g139
(lp140
(lp141
(lp142
I1
aI01
F0.06
tp143
tp144
Rp145
g11
((lp146
(lp147
g14
ag139
aa(lp148
g16
ag140
aa(lp149
g18
ag141
aa(lp150
g20
ag142
aa(lp151
g22
aI01
aa(lp152
g24
aF0.06
aatp153
Rp154
bsS'mead_index_cards'
p155
g2
(g3
g4
(g155
(lp156
I2
a(lp157
I2
a(lp158
I1
aI01
F0.06
tp159
tp160
Rp161
g11
((lp162
(lp163
g14
ag155
aa(lp164
g16
ag156
aa(lp165
g18
ag157
aa(lp166
g20
ag158
aa(lp167
g22
aI01
aa(lp168
g24
aF0.06
aatp169
Rp170
bsS'laugh_out_loud_joke_book'
p171
g2
(g3
g4
(g171
(lp172
I2
a(lp173
I2
a(lp174
I0
aI1
aI00
F0.06
tp175
tp176
Rp177
g11
((lp178
(lp179
g14
ag171
aa(lp180
g16
ag172
aa(lp181
g18
ag173
aa(lp182
g20
ag174
aa(lp183
g22
aI00
aa(lp184
g24
aF0.06
aatp185
Rp186
bsS'first_years_take_and_toss_straw_cup'
p187
g2
(g3
g4
(g187
(lp188
(lp189
(lp190
I1
aI0
aI01
F0.1
tp191
tp192
Rp193
g11
((lp194
(lp195
g14
ag187
aa(lp196
g16
ag188
aa(lp197
g18
ag189
aa(lp198
g20
ag190
aa(lp199
g22
aI01
aa(lp200
g24
aF0.1
aatp201
Rp202
bsS'stanley_66_052'
p203
g2
(g3
g4
(g203
(lp204
I2
a(lp205
I2
a(lp206
I1
aI0
aI00
F0.06
tp207
tp208
Rp209
g11
((lp210
(lp211
g14
ag203
aa(lp212
g16
ag204
aa(lp213
g18
ag205
aa(lp214
g20
ag206
aa(lp215
g22
aI00
aa(lp216
g24
aF0.06
aatp217
Rp218
bsS'elmers_washable_no_run_school_glue'
p219
g2
(g3
g4
(g219
(lp220
I1
a(lp221
I2
a(lp222
I0
aI1
aI01
F0.1
tp223
tp224
Rp225
g11
((lp226
(lp227
g14
ag219
aa(lp228
g16
ag220
aa(lp229
g18
ag221
aa(lp230
g20
ag222
aa(lp231
g22
aI01
aa(lp232
g24
aF0.1
aatp233
Rp234
bsS'kong_air_dog_squeakair_tennis_ball'
p235
g2
(g3
g4
(g235
(lp236
(lp237
(lp238
I1
aI01
F0.06
tp239
tp240
Rp241
g11
((lp242
(lp243
g14
ag235
aa(lp244
g16
ag236
aa(lp245
g18
ag237
aa(lp246
g20
ag238
aa(lp247
g22
aI01
aa(lp248
g24
aF0.06
aatp249
Rp250
bs.