ccopy_reg
_reconstructor
p0
(cgrasping.myTypes
shelfInfo
p1
c__builtin__
tuple
p2
((F1.416066051701479
F0.36618395656632996
F0.29943380984051066
tp3
(F-0.003273540946676547
F0.00040660400808658975
F-0.002458268245072233
F0.9999915377242381
tp4
(F1.4119673959240966
F-0.47133620383073993
F0.30491892061258513
tp5
(F-0.0032735381992950456
F0.0004066261264555113
F-0.0024515115887251402
F0.9999915543112259
tp6
g0
(crospy.rostime
Time
p7
c__builtin__
object
p8
Ntp9
Rp10
(lp11
I1431934820
aI774713993
abtp12
tp13
Rp14
ccollections
OrderedDict
p15
((lp16
(lp17
S'odomL'
p18
ag3
aa(lp19
S'odomL_rot'
p20
ag4
aa(lp21
S'odomR'
p22
ag5
aa(lp23
S'odomR_rot'
p24
ag6
aa(lp25
S'timestamp'
p26
ag10
aatp27
Rp28
b.