ccopy_reg
_reconstructor
p0
(cgrasping.myTypes
shelfInfo
p1
c__builtin__
tuple
p2
((F1.4981017205652143
F0.47665891435894076
F0.3011709098641306
tp3
(F0.003305811295437056
F0.0029181871948968426
F0.02526865095373685
F0.9996709714071689
tp4
(F1.5409091671503568
F-0.3607323063769181
F0.2955025828107627
tp5
(F0.003305812235012864
F0.0029181861305164194
F0.02526897282028089
F0.9996709632713068
tp6
g0
(crospy.rostime
Time
p7
c__builtin__
object
p8
Ntp9
Rp10
(lp11
I1431795236
aI959084987
abtp12
tp13
Rp14
ccollections
OrderedDict
p15
((lp16
(lp17
S'odomL'
p18
ag3
aa(lp19
S'odomL_rot'
p20
ag4
aa(lp21
S'odomR'
p22
ag5
aa(lp23
S'odomR_rot'
p24
ag6
aa(lp25
S'timestamp'
p26
ag10
aatp27
Rp28
b.