ccopy_reg
_reconstructor
p0
(cgrasping.myTypes
shelfInfo
p1
c__builtin__
tuple
p2
((F0.8930458009253958
F0.14855048294129386
F0.31490196881951543
tp3
(F0.0047138971139758234
F-0.005340422270135243
F-0.1262634948065485
F0.9919711633627322
tp4
(F0.6859510151166037
F-0.654209604315433
F0.30603546864043757
tp5
(F0.0047138925611805065
F-0.005340426288804403
F-0.126262649135554
F0.9919712710039779
tp6
g0
(crospy.rostime
Time
p7
c__builtin__
object
p8
Ntp9
Rp10
(lp11
I1431453801
aI764544963
abtp12
tp13
Rp14
ccollections
OrderedDict
p15
((lp16
(lp17
S'odomL'
p18
ag3
aa(lp19
S'odomL_rot'
p20
ag4
aa(lp21
S'odomR'
p22
ag5
aa(lp23
S'odomR_rot'
p24
ag6
aa(lp25
S'timestamp'
p26
ag10
aatp27
Rp28
b.