ccopy_reg
_reconstructor
p0
(cgrasping.myTypes
shelfInfo
p1
c__builtin__
tuple
p2
((F0.9037516191394387
F0.03736722497011165
F0.30473001004762923
tp3
(F0.0016077334488609123
F-0.000503567983095422
F-0.1381255426448656
F0.9904132955900306
tp4
(F0.6762952624890117
F-0.7634386590163919
F0.30196321062849496
tp5
(F0.001607732455442677
F-0.0005035711547549714
F-0.1381235888040771
F0.9904135680756428
tp6
g0
(crospy.rostime
Time
p7
c__builtin__
object
p8
Ntp9
Rp10
(lp11
I1431538080
aI340974092
abtp12
tp13
Rp14
ccollections
OrderedDict
p15
((lp16
(lp17
S'odomL'
p18
ag3
aa(lp19
S'odomL_rot'
p20
ag4
aa(lp21
S'odomR'
p22
ag5
aa(lp23
S'odomR_rot'
p24
ag6
aa(lp25
S'timestamp'
p26
ag10
aatp27
Rp28
b.