ccopy_reg
_reconstructor
p0
(cgrasping.myTypes
shelfInfo
p1
c__builtin__
tuple
p2
((F1.5341246583326935
F0.7233780816121097
F0.29207203274388266
tp3
(F-0.0011112457599397028
F0.005443193470795582
F-0.09012325378195718
F0.995915124850232
tp4
(F1.3848583107325645
F-0.09468058431508816
F0.2947285185803923
tp5
(F-0.001111258948250045
F0.005443190778342224
F-0.09012566678447494
F0.9959149064876749
tp6
g0
(crospy.rostime
Time
p7
c__builtin__
object
p8
Ntp9
Rp10
(lp11
I1432121459
aI984986066
abtp12
tp13
Rp14
ccollections
OrderedDict
p15
((lp16
(lp17
S'odomL'
p18
ag3
aa(lp19
S'odomL_rot'
p20
ag4
aa(lp21
S'odomR'
p22
ag5
aa(lp23
S'odomR_rot'
p24
ag6
aa(lp25
S'timestamp'
p26
ag10
aatp27
Rp28
b.