ccopy_reg
_reconstructor
p0
(cgrasping.myTypes
shelfInfo
p1
c__builtin__
tuple
p2
((F0.905255060497995
F0.03658808557133053
F0.29771306476352316
tp3
(F0.000863858391158377
F0.0033037118489873374
F-0.1376434324289131
F0.9904759586915203
tp4
(F0.6800762181029156
F-0.7619478220616676
F0.29704043386702733
tp5
(F0.0008638561582248859
F0.003303712432856561
F-0.13764410187792755
F0.9904758656599956
tp6
g0
(crospy.rostime
Time
p7
c__builtin__
object
p8
Ntp9
Rp10
(lp11
I1431535298
aI447868108
abtp12
tp13
Rp14
ccollections
OrderedDict
p15
((lp16
(lp17
S'odomL'
p18
ag3
aa(lp19
S'odomL_rot'
p20
ag4
aa(lp21
S'odomR'
p22
ag5
aa(lp23
S'odomR_rot'
p24
ag6
aa(lp25
S'timestamp'
p26
ag10
aatp27
Rp28
b.