ccopy_reg
_reconstructor
p0
(cgrasping.myTypes
shelfInfo
p1
c__builtin__
tuple
p2
((F0.802762244303546
F0.8776477127300577
F0.2939424846289174
tp3
(F-0.0012145982369140865
F0.00429360537632931
F0.04491855389493293
F0.9989806871106084
tp4
(F0.8784223477611484
F0.03809893054213506
F0.2956629470229264
tp5
(F-0.0012146059166861806
F0.004293603203826558
F0.044916767064150785
F0.9989807674527573
tp6
g0
(crospy.rostime
Time
p7
c__builtin__
object
p8
Ntp9
Rp10
(lp11
I1431889586
aI528987884
abtp12
tp13
Rp14
ccollections
OrderedDict
p15
((lp16
(lp17
S'odomL'
p18
ag3
aa(lp19
S'odomL_rot'
p20
ag4
aa(lp21
S'odomR'
p22
ag5
aa(lp23
S'odomR_rot'
p24
ag6
aa(lp25
S'timestamp'
p26
ag10
aatp27
Rp28
b.